	.file	"hello_world.c"
	.text
	.def	___main;	.scl	2;	.type	32;	.endef
	.section .rdata,"dr"
LC0:
	.ascii "%p, %p\12\0"
LC1:
	.ascii "%d\12\0"
	.text
	.globl	_main
	.def	_main;	.scl	2;	.type	32;	.endef
_main:
LFB17:
	.cfi_startproc
	pushl	%ebp
	.cfi_def_cfa_offset 8
	.cfi_offset 5, -8
	movl	%esp, %ebp
	.cfi_def_cfa_register 5
	andl	$-16, %esp
	subl	$48, %esp
	call	___main
	movl	$3, 28(%esp)
	movl	$30, 32(%esp)
	movl	$34, 36(%esp)
	movl	$5, 40(%esp)
	movl	$9, 44(%esp)
	leal	28(%esp), %eax
	movl	%eax, 24(%esp)
	leal	28(%esp), %eax
	movl	%eax, 8(%esp)
	leal	28(%esp), %eax
	movl	%eax, 4(%esp)
	movl	$LC0, (%esp)
	call	_printf
	movl	24(%esp), %eax
	leal	24(%esp), %edx
	movl	%edx, 8(%esp)
	movl	%eax, 4(%esp)
	movl	$LC0, (%esp)
	call	_printf
	movl	36(%esp), %eax
	movl	%eax, 4(%esp)
	movl	$LC1, (%esp)
	call	_printf
	movl	$0, %eax
	leave
	.cfi_restore 5
	.cfi_def_cfa 4, 4
	ret
	.cfi_endproc
LFE17:
	.ident	"GCC: (i686-posix-dwarf-rev0, Built by MinGW-W64 project) 8.1.0"
	.def	_printf;	.scl	2;	.type	32;	.endef
